; Function Attrs: mustprogress uwtable
define void @_ZNK7mitsuba10filesystem4path8filenameEv(ptr dead_on_unwind noalias writable sret(%"class.mitsuba::filesystem::path") align 8 %0, ptr nocapture noundef nonnull readonly align 8 dereferenceable(25) %1) local_unnamed_addr #0 align 2 personality ptr @__gxx_personality_v0 {
  %3 = alloca %"class.std::__1::basic_string", align 8
  %4 = load ptr, ptr %1, align 8
  %5 = getelementptr inbounds i8, ptr %1, i64 8
  %6 = load ptr, ptr %5, align 8
  %7 = icmp eq ptr %4, %6
  br i1 %7, label %8, label %14

8:                                                ; preds = %2
  call void @llvm.lifetime.start.p0(i64 24, ptr nonnull %3)
  tail call void @llvm.memset.p0.i64(ptr noundef nonnull align 8 dereferenceable(24) %0, i8 0, i64 24, i1 false)
  invoke void @_ZNSt3__112basic_stringIcNS_11char_traitsIcEENS_9allocatorIcEEE6__initEPKcm(ptr noundef nonnull align 8 dereferenceable(24) %3, ptr noundef nonnull @.str.7, i64 noundef 0)
          to label %_ZNSt3__112basic_stringIcNS_11char_traitsIcEENS_9allocatorIcEEEC2B8ne190000ILi0EEEPKc.exit.i unwind label %9

_ZNSt3__112basic_stringIcNS_11char_traitsIcEENS_9allocatorIcEEEC2B8ne190000ILi0EEEPKc.exit.i: ; preds = %8
  invoke void @_ZN7mitsuba10filesystem4path3setERKNSt3__112basic_stringIcNS2_11char_traitsIcEENS2_9allocatorIcEEEE(ptr noundef nonnull align 8 dereferenceable(25) %0, ptr noundef nonnull align 8 dereferenceable(24) %3)
          to label %_ZN7mitsuba10filesystem4pathC2EPKc.exit unwind label %11

9:                                                ; preds = %8
  %10 = landingpad { ptr, i32 }
          cleanup
  br label %13

11:                                               ; preds = %_ZNSt3__112basic_stringIcNS_11char_traitsIcEENS_9allocatorIcEEEC2B8ne190000ILi0EEEPKc.exit.i
  %12 = landingpad { ptr, i32 }
          cleanup
  call void @_ZNSt3__112basic_stringIcNS_11char_traitsIcEENS_9allocatorIcEEED1Ev(ptr noundef nonnull align 8 dereferenceable(24) %3) #16
  br label %13

common.resume:                                    ; preds = %16, %13
  %common.resume.op = phi { ptr, i32 } [ %.pn.i, %13 ], [ %17, %16 ]
  resume { ptr, i32 } %common.resume.op

13:                                               ; preds = %11, %9
  %.pn.i = phi { ptr, i32 } [ %12, %11 ], [ %10, %9 ]
  call void @_ZNSt3__16vectorINS_12basic_stringIcNS_11char_traitsIcEENS_9allocatorIcEEEENS4_IS6_EEED2B8ne190000Ev(ptr noundef nonnull align 8 dereferenceable(24) %0) #16
  br label %common.resume

_ZN7mitsuba10filesystem4pathC2EPKc.exit:          ; preds = %_ZNSt3__112basic_stringIcNS_11char_traitsIcEENS_9allocatorIcEEEC2B8ne190000ILi0EEEPKc.exit.i
  call void @_ZNSt3__112basic_stringIcNS_11char_traitsIcEENS_9allocatorIcEEED1Ev(ptr noundef nonnull align 8 dereferenceable(24) %3) #16
  call void @llvm.lifetime.end.p0(i64 24, ptr nonnull %3)
  br label %_ZN7mitsuba10filesystem4pathC2ERKNSt3__112basic_stringIcNS2_11char_traitsIcEENS2_9allocatorIcEEEE.exit

14:                                               ; preds = %2
  %15 = getelementptr inbounds i8, ptr %6, i64 -24
  tail call void @llvm.memset.p0.i64(ptr noundef nonnull align 8 dereferenceable(24) %0, i8 0, i64 24, i1 false)
  invoke void @_ZN7mitsuba10filesystem4path3setERKNSt3__112basic_stringIcNS2_11char_traitsIcEENS2_9allocatorIcEEEE(ptr noundef nonnull align 8 dereferenceable(25) %0, ptr noundef nonnull align 8 dereferenceable(24) %15)
          to label %_ZN7mitsuba10filesystem4pathC2ERKNSt3__112basic_stringIcNS2_11char_traitsIcEENS2_9allocatorIcEEEE.exit unwind label %16

16:                                               ; preds = %14
  %17 = landingpad { ptr, i32 }
          cleanup
  tail call void @_ZNSt3__16vectorINS_12basic_stringIcNS_11char_traitsIcEENS_9allocatorIcEEEENS4_IS6_EEED2B8ne190000Ev(ptr noundef nonnull align 8 dereferenceable(24) %0) #16
  br label %common.resume

_ZN7mitsuba10filesystem4pathC2ERKNSt3__112basic_stringIcNS2_11char_traitsIcEENS2_9allocatorIcEEEE.exit: ; preds = %14, %_ZN7mitsuba10filesystem4pathC2EPKc.exit
  ret void
}